target datalayout = "e-m:e-p270:32:32-p271:32:32-p272:64:64-i64:64-i128:128-f80:128-n8:16:32:64-S128"
target triple = "x86_64-pc-linux-gnu"

%union.pthread_mutex_t = type { %struct.__pthread_mutex_s }
%struct.__pthread_mutex_s = type { i32, i32, i32, i32, i32, i16, i16, %struct.__pthread_internal_list }
%struct.__pthread_internal_list = type { ptr, ptr }
%union.pthread_cond_t = type { %struct.__pthread_cond_s }
%struct.__pthread_cond_s = type { %union.__atomic_wide_counter, %union.__atomic_wide_counter, [2 x i32], [2 x i32], i32, i32, [2 x i32] }
%union.__atomic_wide_counter = type { i64 }
%struct.timespec = type { i64, i64 }

@.str.3 = private unnamed_addr constant [9 x i8] c"slurmd.c\00", align 1
@.str.43 = private unnamed_addr constant [29 x i8] c"%s: pthread_mutex_lock(): %m\00", align 1
@.str.44 = private unnamed_addr constant [31 x i8] c"%s: pthread_mutex_unlock(): %m\00", align 1
@active_mutex = internal global %union.pthread_mutex_t zeroinitializer, align 8
@active_threads = internal global i32 0, align 4
@active_cond = internal global %union.pthread_cond_t zeroinitializer, align 8
@.str.85 = private unnamed_addr constant [34 x i8] c"%s:%d %s: pthread_cond_wait(): %m\00", align 1
@.str.95 = private unnamed_addr constant [36 x i8] c"%s:%d %s: pthread_cond_signal(): %m\00", align 1
@__func__._wait_for_all_threads = private unnamed_addr constant [22 x i8] c"_wait_for_all_threads\00", align 1
@.str.96 = private unnamed_addr constant [29 x i8] c"waiting on %d active threads\00", align 1
@.str.97 = private unnamed_addr constant [45 x i8] c"Timeout waiting for completion of %d threads\00", align 1
@.str.98 = private unnamed_addr constant [21 x i8] c"all threads complete\00", align 1

; Function Attrs: nounwind uwtable
define internal void @_wait_for_all_threads(i32 noundef %0) #0 {
  %2 = alloca i32, align 4
  %3 = alloca %struct.timespec, align 8
  %4 = alloca i32, align 4
  %5 = alloca i32, align 4
  %6 = alloca i32, align 4
  %7 = alloca i32, align 4
  %8 = alloca i32, align 4
  %9 = alloca i32, align 4
  %10 = alloca i32, align 4
  %11 = alloca i32, align 4
  store i32 %0, ptr %2, align 4
  call void @llvm.lifetime.start.p0(i64 16, ptr %3) #11
  call void @llvm.lifetime.start.p0(i64 4, ptr %4) #11
  %12 = call i64 @time(ptr noundef null) #11
  %13 = getelementptr inbounds nuw %struct.timespec, ptr %3, i32 0, i32 0
  store i64 %12, ptr %13, align 8
  %14 = getelementptr inbounds nuw %struct.timespec, ptr %3, i32 0, i32 1
  store i64 0, ptr %14, align 8
  %15 = load i32, ptr %2, align 4
  %16 = sext i32 %15 to i64
  %17 = getelementptr inbounds nuw %struct.timespec, ptr %3, i32 0, i32 0
  %18 = load i64, ptr %17, align 8
  %19 = add nsw i64 %18, %16
  store i64 %19, ptr %17, align 8
  br label %20

20:                                               ; preds = %1
  call void @llvm.lifetime.start.p0(i64 4, ptr %5) #11
  %21 = call i32 @pthread_mutex_lock(ptr noundef @active_mutex) #11
  store i32 %21, ptr %5, align 4
  %22 = load i32, ptr %5, align 4
  %23 = icmp ne i32 %22, 0
  br i1 %23, label %24, label %27

24:                                               ; preds = %20
  %25 = load i32, ptr %5, align 4
  %26 = call ptr @__errno_location() #15
  store i32 %25, ptr %26, align 4
  call void (ptr, ...) @fatal_abort(ptr noundef @.str.43, ptr noundef @__func__._wait_for_all_threads) #12
  unreachable

27:                                               ; preds = %20
  call void @llvm.lifetime.end.p0(i64 4, ptr %5) #11
  br label %28

28:                                               ; preds = %27
  br label %29

29:                                               ; preds = %28
  br label %30

30:                                               ; preds = %88, %29
  %31 = load i32, ptr @active_threads, align 4
  %32 = icmp sgt i32 %31, 0
  br i1 %32, label %33, label %89

33:                                               ; preds = %30
  br label %34

34:                                               ; preds = %33
  br label %35

35:                                               ; preds = %34
  %36 = call i32 @get_log_level()
  %37 = icmp sge i32 %36, 4
  br i1 %37, label %38, label %40

38:                                               ; preds = %35
  %39 = load i32, ptr @active_threads, align 4
  call void (i32, ptr, ...) @log_var(i32 noundef 4, ptr noundef @.str.96, i32 noundef %39)
  br label %40

40:                                               ; preds = %38, %35
  br label %41

41:                                               ; preds = %40
  br label %42

42:                                               ; preds = %41
  br label %43

43:                                               ; preds = %42
  br label %44

44:                                               ; preds = %43
  %45 = load i32, ptr %2, align 4
  %46 = icmp eq i32 %45, 65534
  br i1 %46, label %47, label %59

47:                                               ; preds = %44
  br label %48

48:                                               ; preds = %47
  call void @llvm.lifetime.start.p0(i64 4, ptr %6) #11
  %49 = call i32 @pthread_cond_wait(ptr noundef @active_cond, ptr noundef @active_mutex)
  store i32 %49, ptr %6, align 4
  %50 = load i32, ptr %6, align 4
  %51 = icmp ne i32 %50, 0
  br i1 %51, label %52, label %56

52:                                               ; preds = %48
  %53 = load i32, ptr %6, align 4
  %54 = call ptr @__errno_location() #15
  store i32 %53, ptr %54, align 4
  %55 = call i32 (ptr, ...) @error(ptr noundef @.str.85, ptr noundef @.str.3, i32 noundef 702, ptr noundef @__func__._wait_for_all_threads)
  br label %56

56:                                               ; preds = %52, %48
  call void @llvm.lifetime.end.p0(i64 4, ptr %6) #11
  br label %57

57:                                               ; preds = %56
  br label %58

58:                                               ; preds = %57
  br label %88

59:                                               ; preds = %44
  %60 = call i32 @pthread_cond_timedwait(ptr noundef @active_cond, ptr noundef @active_mutex, ptr noundef %3)
  store i32 %60, ptr %4, align 4
  %61 = load i32, ptr %4, align 4
  %62 = icmp eq i32 %61, 110
  br i1 %62, label %63, label %87

63:                                               ; preds = %59
  %64 = load i32, ptr @active_threads, align 4
  %65 = call i32 (ptr, ...) @error(ptr noundef @.str.97, i32 noundef %64)
  br label %66

66:                                               ; preds = %63
  call void @llvm.lifetime.start.p0(i64 4, ptr %7) #11
  %67 = call i32 @pthread_cond_signal(ptr noundef @active_cond) #11
  store i32 %67, ptr %7, align 4
  %68 = load i32, ptr %7, align 4
  %69 = icmp ne i32 %68, 0
  br i1 %69, label %70, label %74

70:                                               ; preds = %66
  %71 = load i32, ptr %7, align 4
  %72 = call ptr @__errno_location() #15
  store i32 %71, ptr %72, align 4
  %73 = call i32 (ptr, ...) @error(ptr noundef @.str.95, ptr noundef @.str.3, i32 noundef 709, ptr noundef @__func__._wait_for_all_threads)
  br label %74

74:                                               ; preds = %70, %66
  call void @llvm.lifetime.end.p0(i64 4, ptr %7) #11
  br label %75

75:                                               ; preds = %74
  br label %76

76:                                               ; preds = %75
  br label %77

77:                                               ; preds = %76
  call void @llvm.lifetime.start.p0(i64 4, ptr %8) #11
  %78 = call i32 @pthread_mutex_unlock(ptr noundef @active_mutex) #11
  store i32 %78, ptr %8, align 4
  %79 = load i32, ptr %8, align 4
  %80 = icmp ne i32 %79, 0
  br i1 %80, label %81, label %84

81:                                               ; preds = %77
  %82 = load i32, ptr %8, align 4
  %83 = call ptr @__errno_location() #15
  store i32 %82, ptr %83, align 4
  call void (ptr, ...) @fatal_abort(ptr noundef @.str.44, ptr noundef @__func__._wait_for_all_threads) #12
  unreachable

84:                                               ; preds = %77
  call void @llvm.lifetime.end.p0(i64 4, ptr %8) #11
  br label %85

85:                                               ; preds = %84
  br label %86

86:                                               ; preds = %85
  store i32 1, ptr %9, align 4
  br label %121

87:                                               ; preds = %59
  br label %88

88:                                               ; preds = %87, %58
  br label %30, !llvm.loop !15

89:                                               ; preds = %30
  br label %90

90:                                               ; preds = %89
  call void @llvm.lifetime.start.p0(i64 4, ptr %10) #11
  %91 = call i32 @pthread_cond_signal(ptr noundef @active_cond) #11
  store i32 %91, ptr %10, align 4
  %92 = load i32, ptr %10, align 4
  %93 = icmp ne i32 %92, 0
  br i1 %93, label %94, label %98

94:                                               ; preds = %90
  %95 = load i32, ptr %10, align 4
  %96 = call ptr @__errno_location() #15
  store i32 %95, ptr %96, align 4
  %97 = call i32 (ptr, ...) @error(ptr noundef @.str.95, ptr noundef @.str.3, i32 noundef 715, ptr noundef @__func__._wait_for_all_threads)
  br label %98

98:                                               ; preds = %94, %90
  call void @llvm.lifetime.end.p0(i64 4, ptr %10) #11
  br label %99

99:                                               ; preds = %98
  br label %100

100:                                              ; preds = %99
  br label %101

101:                                              ; preds = %100
  call void @llvm.lifetime.start.p0(i64 4, ptr %11) #11
  %102 = call i32 @pthread_mutex_unlock(ptr noundef @active_mutex) #11
  store i32 %102, ptr %11, align 4
  %103 = load i32, ptr %11, align 4
  %104 = icmp ne i32 %103, 0
  br i1 %104, label %105, label %108

105:                                              ; preds = %101
  %106 = load i32, ptr %11, align 4
  %107 = call ptr @__errno_location() #15
  store i32 %106, ptr %107, align 4
  call void (ptr, ...) @fatal_abort(ptr noundef @.str.44, ptr noundef @__func__._wait_for_all_threads) #12
  unreachable

108:                                              ; preds = %101
  call void @llvm.lifetime.end.p0(i64 4, ptr %11) #11
  br label %109

109:                                              ; preds = %108
  br label %110

110:                                              ; preds = %109
  br label %111

111:                                              ; preds = %110
  br label %112

112:                                              ; preds = %111
  %113 = call i32 @get_log_level()
  %114 = icmp sge i32 %113, 4
  br i1 %114, label %115, label %116

115:                                              ; preds = %112
  call void (i32, ptr, ...) @log_var(i32 noundef 4, ptr noundef @.str.98)
  br label %116

116:                                              ; preds = %115, %112
  br label %117

117:                                              ; preds = %116
  br label %118

118:                                              ; preds = %117
  br label %119

119:                                              ; preds = %118
  br label %120

120:                                              ; preds = %119
  store i32 0, ptr %9, align 4
  br label %121

121:                                              ; preds = %120, %86
  call void @llvm.lifetime.end.p0(i64 4, ptr %4) #11
  call void @llvm.lifetime.end.p0(i64 16, ptr %3) #11
  %122 = load i32, ptr %9, align 4
  switch i32 %122, label %124 [
    i32 0, label %123
    i32 1, label %123
  ]

123:                                              ; preds = %121, %121
  ret void

124:                                              ; preds = %121
  unreachable
}