; Function Attrs: nounwind uwtable
define internal fastcc void @_wait_for_all_threads(i32 noundef range(i32 0, 65536) %0) unnamed_addr #0 {
  %2 = alloca %struct.timespec, align 8
  call void @llvm.lifetime.start.p0(i64 16, ptr nonnull %2) #18
  %3 = tail call i64 @time(ptr noundef null) #18
  %4 = getelementptr inbounds nuw i8, ptr %2, i64 8
  store i64 0, ptr %4, align 8
  %5 = zext nneg i32 %0 to i64
  %6 = add nsw i64 %3, %5
  store i64 %6, ptr %2, align 8
  %7 = tail call i32 @pthread_mutex_lock(ptr noundef nonnull @active_mutex) #18
  %.not = icmp eq i32 %7, 0
  br i1 %.not, label %.preheader, label %23

.preheader:                                       ; preds = %1
  %8 = load i32, ptr @active_threads, align 4
  %9 = icmp sgt i32 %8, 0
  br i1 %9, label %.lr.ph, label %._crit_edge

.lr.ph:                                           ; preds = %.preheader
  %10 = icmp eq i32 %0, 65534
  br i1 %10, label %.lr.ph.split.us, label %.lr.ph.split

.lr.ph.split.us:                                  ; preds = %.lr.ph, %20
  %11 = tail call i32 @get_log_level() #18
  %12 = icmp sgt i32 %11, 3
  br i1 %12, label %13, label %15

13:                                               ; preds = %.lr.ph.split.us
  %14 = load i32, ptr @active_threads, align 4
  tail call void (i32, ptr, ...) @log_var(i32 noundef 4, ptr noundef nonnull @.str.96, i32 noundef %14) #18
  br label %15

15:                                               ; preds = %13, %.lr.ph.split.us
  %16 = tail call i32 @pthread_cond_wait(ptr noundef nonnull @active_cond, ptr noundef nonnull @active_mutex) #18
  %.not24.us = icmp eq i32 %16, 0
  br i1 %.not24.us, label %20, label %17

17:                                               ; preds = %15
  %18 = tail call ptr @__errno_location() #21
  store i32 %16, ptr %18, align 4
  %19 = tail call i32 (ptr, ...) @error(ptr noundef nonnull @.str.85, ptr noundef nonnull @.str.3, i32 noundef 702, ptr noundef nonnull @__func__._wait_for_all_threads) #18
  br label %20

20:                                               ; preds = %17, %15
  %21 = load i32, ptr @active_threads, align 4
  %22 = icmp sgt i32 %21, 0
  br i1 %22, label %.lr.ph.split.us, label %._crit_edge, !llvm.loop !15

23:                                               ; preds = %1
  %24 = tail call ptr @__errno_location() #21
  store i32 %7, ptr %24, align 4
  tail call void (ptr, ...) @fatal_abort(ptr noundef nonnull @.str.43, ptr noundef nonnull @__func__._wait_for_all_threads) #19
  unreachable

.lr.ph.split:                                     ; preds = %.lr.ph, %43
  %25 = call i32 @get_log_level() #18
  %26 = icmp sgt i32 %25, 3
  br i1 %26, label %27, label %29

27:                                               ; preds = %.lr.ph.split
  %28 = load i32, ptr @active_threads, align 4
  call void (i32, ptr, ...) @log_var(i32 noundef 4, ptr noundef nonnull @.str.96, i32 noundef %28) #18
  br label %29

29:                                               ; preds = %27, %.lr.ph.split
  %30 = call i32 @pthread_cond_timedwait(ptr noundef nonnull @active_cond, ptr noundef nonnull @active_mutex, ptr noundef nonnull %2) #18
  %31 = icmp eq i32 %30, 110
  %32 = load i32, ptr @active_threads, align 4
  br i1 %31, label %33, label %43

33:                                               ; preds = %29
  %34 = call i32 (ptr, ...) @error(ptr noundef nonnull @.str.97, i32 noundef %32) #18
  %35 = call i32 @pthread_cond_signal(ptr noundef nonnull @active_cond) #18
  %.not22 = icmp eq i32 %35, 0
  br i1 %.not22, label %39, label %36

36:                                               ; preds = %33
  %37 = tail call ptr @__errno_location() #21
  store i32 %35, ptr %37, align 4
  %38 = call i32 (ptr, ...) @error(ptr noundef nonnull @.str.95, ptr noundef nonnull @.str.3, i32 noundef 709, ptr noundef nonnull @__func__._wait_for_all_threads) #18
  br label %39

39:                                               ; preds = %36, %33
  %40 = call i32 @pthread_mutex_unlock(ptr noundef nonnull @active_mutex) #18
  %.not23 = icmp eq i32 %40, 0
  br i1 %.not23, label %57, label %41

41:                                               ; preds = %39
  %42 = tail call ptr @__errno_location() #21
  store i32 %40, ptr %42, align 4
  call void (ptr, ...) @fatal_abort(ptr noundef nonnull @.str.44, ptr noundef nonnull @__func__._wait_for_all_threads) #19
  unreachable

43:                                               ; preds = %29
  %44 = icmp sgt i32 %32, 0
  br i1 %44, label %.lr.ph.split, label %._crit_edge, !llvm.loop !15

._crit_edge:                                      ; preds = %43, %20, %.preheader
  %45 = call i32 @pthread_cond_signal(ptr noundef nonnull @active_cond) #18
  %.not20 = icmp eq i32 %45, 0
  br i1 %.not20, label %49, label %46

46:                                               ; preds = %._crit_edge
  %47 = tail call ptr @__errno_location() #21
  store i32 %45, ptr %47, align 4
  %48 = call i32 (ptr, ...) @error(ptr noundef nonnull @.str.95, ptr noundef nonnull @.str.3, i32 noundef 715, ptr noundef nonnull @__func__._wait_for_all_threads) #18
  br label %49

49:                                               ; preds = %46, %._crit_edge
  %50 = call i32 @pthread_mutex_unlock(ptr noundef nonnull @active_mutex) #18
  %.not21 = icmp eq i32 %50, 0
  br i1 %.not21, label %53, label %51

51:                                               ; preds = %49
  %52 = tail call ptr @__errno_location() #21
  store i32 %50, ptr %52, align 4
  call void (ptr, ...) @fatal_abort(ptr noundef nonnull @.str.44, ptr noundef nonnull @__func__._wait_for_all_threads) #19
  unreachable

53:                                               ; preds = %49
  %54 = call i32 @get_log_level() #18
  %55 = icmp sgt i32 %54, 3
  br i1 %55, label %56, label %57

56:                                               ; preds = %53
  call void (i32, ptr, ...) @log_var(i32 noundef 4, ptr noundef nonnull @.str.98) #18
  br label %57

57:                                               ; preds = %53, %56, %39
  call void @llvm.lifetime.end.p0(i64 16, ptr nonnull %2) #18
  ret void
}